target datalayout = "e-m:e-p270:32:32-p271:32:32-p272:64:64-i64:64-i128:128-f80:128-n8:16:32:64-S128"
target triple = "x86_64-pc-linux-gnu"

%struct.Zyx_Man_t_ = type { ptr, ptr, i32, i32, i32, i32, i32, ptr, ptr, ptr, ptr, ptr, ptr, [2 x i32], [32 x [32 x i32]], [2 x [64 x i32]], [2 x i32], [1024 x i32], ptr, i64 }
%struct.Bmc_EsPar_t_ = type { i32, i32, i32, i32, i32, i32, i32, i32, i32, i32, i32, i32, i32, i32, i32, i32, i32, ptr }

; Function Attrs: nounwind uwtable
define internal i32 @Zyx_FuncVar(ptr noundef %0, i32 noundef %1, i32 noundef %2) #0 {
  %4 = alloca ptr, align 8
  %5 = alloca i32, align 4
  %6 = alloca i32, align 4
  store ptr %0, ptr %4, align 8
  store i32 %1, ptr %5, align 4
  store i32 %2, ptr %6, align 4
  %7 = load ptr, ptr %4, align 8
  %8 = getelementptr inbounds %struct.Zyx_Man_t_, ptr %7, i32 0, i32 4
  %9 = load i32, ptr %8, align 8
  %10 = add nsw i32 %9, 1
  %11 = load i32, ptr %5, align 4
  %12 = load ptr, ptr %4, align 8
  %13 = getelementptr inbounds %struct.Zyx_Man_t_, ptr %12, i32 0, i32 0
  %14 = load ptr, ptr %13, align 8
  %15 = getelementptr inbounds %struct.Bmc_EsPar_t_, ptr %14, i32 0, i32 0
  %16 = load i32, ptr %15, align 8
  %17 = sub nsw i32 %11, %16
  %18 = mul nsw i32 %10, %17
  %19 = load i32, ptr %6, align 4
  %20 = add nsw i32 %18, %19
  ret i32 %20
}

; Function Attrs: nounwind uwtable
define internal i32 @Abc_Var2Lit(i32 noundef %0, i32 noundef %1) #0 {
  %3 = alloca i32, align 4
  %4 = alloca i32, align 4
  store i32 %0, ptr %3, align 4
  store i32 %1, ptr %4, align 4
  %5 = load i32, ptr %3, align 4
  %6 = load i32, ptr %3, align 4
  %7 = add nsw i32 %5, %6
  %8 = load i32, ptr %4, align 4
  %9 = add nsw i32 %7, %8
  ret i32 %9
}

; Function Attrs: nounwind uwtable
define internal i32 @Zyx_TopoVar(ptr noundef %0, i32 noundef %1, i32 noundef %2) #0 {
  %4 = alloca ptr, align 8
  %5 = alloca i32, align 4
  %6 = alloca i32, align 4
  store ptr %0, ptr %4, align 8
  store i32 %1, ptr %5, align 4
  store i32 %2, ptr %6, align 4
  %7 = load ptr, ptr %4, align 8
  %8 = getelementptr inbounds %struct.Zyx_Man_t_, ptr %7, i32 0, i32 5
  %9 = load i32, ptr %8, align 4
  %10 = load ptr, ptr %4, align 8
  %11 = getelementptr inbounds %struct.Zyx_Man_t_, ptr %10, i32 0, i32 2
  %12 = load i32, ptr %11, align 8
  %13 = load i32, ptr %5, align 4
  %14 = load ptr, ptr %4, align 8
  %15 = getelementptr inbounds %struct.Zyx_Man_t_, ptr %14, i32 0, i32 0
  %16 = load ptr, ptr %15, align 8
  %17 = getelementptr inbounds %struct.Bmc_EsPar_t_, ptr %16, i32 0, i32 0
  %18 = load i32, ptr %17, align 8
  %19 = sub nsw i32 %13, %18
  %20 = mul nsw i32 %12, %19
  %21 = add nsw i32 %9, %20
  %22 = load i32, ptr %6, align 4
  %23 = add nsw i32 %21, %22
  ret i32 %23
}

; Function Attrs: nounwind uwtable
define i32 @Zyx_ManAddCnfStart(ptr noundef %0) #0 {
  %2 = alloca i32, align 4
  %3 = alloca ptr, align 8
  %4 = alloca i32, align 4
  %5 = alloca i32, align 4
  %6 = alloca [32 x i32], align 16
  %7 = alloca i32, align 4
  %8 = alloca i32, align 4
  store ptr %0, ptr %3, align 8
  %9 = load ptr, ptr %3, align 8
  %10 = getelementptr inbounds %struct.Zyx_Man_t_, ptr %9, i32 0, i32 0
  %11 = load ptr, ptr %10, align 8
  %12 = getelementptr inbounds %struct.Bmc_EsPar_t_, ptr %11, i32 0, i32 0
  %13 = load i32, ptr %12, align 8
  store i32 %13, ptr %4, align 4
  br label %14

14:                                               ; preds = %48, %1
  %15 = load i32, ptr %4, align 4
  %16 = load ptr, ptr %3, align 8
  %17 = getelementptr inbounds %struct.Zyx_Man_t_, ptr %16, i32 0, i32 2
  %18 = load i32, ptr %17, align 8
  %19 = icmp slt i32 %15, %18
  br i1 %19, label %20, label %51

20:                                               ; preds = %14
  store i32 0, ptr %7, align 4
  store i32 0, ptr %5, align 4
  br label %21

21:                                               ; preds = %35, %20
  %22 = load i32, ptr %5, align 4
  %23 = load i32, ptr %4, align 4
  %24 = icmp slt i32 %22, %23
  br i1 %24, label %25, label %38

25:                                               ; preds = %21
  %26 = load ptr, ptr %3, align 8
  %27 = load i32, ptr %4, align 4
  %28 = load i32, ptr %5, align 4
  %29 = call i32 @Zyx_TopoVar(ptr noundef %26, i32 noundef %27, i32 noundef %28)
  %30 = call i32 @Abc_Var2Lit(i32 noundef %29, i32 noundef 0)
  %31 = load i32, ptr %7, align 4
  %32 = add nsw i32 %31, 1
  store i32 %32, ptr %7, align 4
  %33 = sext i32 %31 to i64
  %34 = getelementptr inbounds [32 x i32], ptr %6, i64 0, i64 %33
  store i32 %30, ptr %34, align 4
  br label %35

35:                                               ; preds = %25
  %36 = load i32, ptr %5, align 4
  %37 = add nsw i32 %36, 1
  store i32 %37, ptr %5, align 4
  br label %21, !llvm.loop !53

38:                                               ; preds = %21
  %39 = load ptr, ptr %3, align 8
  %40 = getelementptr inbounds %struct.Zyx_Man_t_, ptr %39, i32 0, i32 18
  %41 = load ptr, ptr %40, align 8
  %42 = getelementptr inbounds [32 x i32], ptr %6, i64 0, i64 0
  %43 = load i32, ptr %7, align 4
  %44 = call i32 @bmcg_sat_solver_addclause(ptr noundef %41, ptr noundef %42, i32 noundef %43)
  %45 = icmp ne i32 %44, 0
  br i1 %45, label %47, label %46

46:                                               ; preds = %38
  store i32 0, ptr %2, align 4
  br label %193

47:                                               ; preds = %38
  br label %48

48:                                               ; preds = %47
  %49 = load i32, ptr %4, align 4
  %50 = add nsw i32 %49, 1
  store i32 %50, ptr %4, align 4
  br label %14, !llvm.loop !54

51:                                               ; preds = %14
  store i32 0, ptr %5, align 4
  br label %52

52:                                               ; preds = %94, %51
  %53 = load i32, ptr %5, align 4
  %54 = load ptr, ptr %3, align 8
  %55 = getelementptr inbounds %struct.Zyx_Man_t_, ptr %54, i32 0, i32 2
  %56 = load i32, ptr %55, align 8
  %57 = sub nsw i32 %56, 1
  %58 = icmp slt i32 %53, %57
  br i1 %58, label %59, label %97

59:                                               ; preds = %52
  store i32 0, ptr %8, align 4
  %60 = load ptr, ptr %3, align 8
  %61 = getelementptr inbounds %struct.Zyx_Man_t_, ptr %60, i32 0, i32 0
  %62 = load ptr, ptr %61, align 8
  %63 = getelementptr inbounds %struct.Bmc_EsPar_t_, ptr %62, i32 0, i32 0
  %64 = load i32, ptr %63, align 8
  store i32 %64, ptr %4, align 4
  br label %65

65:                                               ; preds = %81, %59
  %66 = load i32, ptr %4, align 4
  %67 = load ptr, ptr %3, align 8
  %68 = getelementptr inbounds %struct.Zyx_Man_t_, ptr %67, i32 0, i32 2
  %69 = load i32, ptr %68, align 8
  %70 = icmp slt i32 %66, %69
  br i1 %70, label %71, label %84

71:                                               ; preds = %65
  %72 = load ptr, ptr %3, align 8
  %73 = load i32, ptr %4, align 4
  %74 = load i32, ptr %5, align 4
  %75 = call i32 @Zyx_TopoVar(ptr noundef %72, i32 noundef %73, i32 noundef %74)
  %76 = call i32 @Abc_Var2Lit(i32 noundef %75, i32 noundef 0)
  %77 = load i32, ptr %8, align 4
  %78 = add nsw i32 %77, 1
  store i32 %78, ptr %8, align 4
  %79 = sext i32 %77 to i64
  %80 = getelementptr inbounds [32 x i32], ptr %6, i64 0, i64 %79
  store i32 %76, ptr %80, align 4
  br label %81

81:                                               ; preds = %71
  %82 = load i32, ptr %4, align 4
  %83 = add nsw i32 %82, 1
  store i32 %83, ptr %4, align 4
  br label %65, !llvm.loop !55

84:                                               ; preds = %65
  %85 = load ptr, ptr %3, align 8
  %86 = getelementptr inbounds %struct.Zyx_Man_t_, ptr %85, i32 0, i32 18
  %87 = load ptr, ptr %86, align 8
  %88 = getelementptr inbounds [32 x i32], ptr %6, i64 0, i64 0
  %89 = load i32, ptr %8, align 4
  %90 = call i32 @bmcg_sat_solver_addclause(ptr noundef %87, ptr noundef %88, i32 noundef %89)
  %91 = icmp ne i32 %90, 0
  br i1 %91, label %93, label %92

92:                                               ; preds = %84
  store i32 0, ptr %2, align 4
  br label %193

93:                                               ; preds = %84
  br label %94

94:                                               ; preds = %93
  %95 = load i32, ptr %5, align 4
  %96 = add nsw i32 %95, 1
  store i32 %96, ptr %5, align 4
  br label %52, !llvm.loop !56

97:                                               ; preds = %52
  %98 = load ptr, ptr %3, align 8
  %99 = getelementptr inbounds %struct.Zyx_Man_t_, ptr %98, i32 0, i32 0
  %100 = load ptr, ptr %99, align 8
  %101 = getelementptr inbounds %struct.Bmc_EsPar_t_, ptr %100, i32 0, i32 2
  %102 = load i32, ptr %101, align 8
  %103 = icmp ne i32 %102, 2
  br i1 %103, label %104, label %105

104:                                              ; preds = %97
  store i32 1, ptr %2, align 4
  br label %193

105:                                              ; preds = %97
  %106 = load ptr, ptr %3, align 8
  %107 = getelementptr inbounds %struct.Zyx_Man_t_, ptr %106, i32 0, i32 0
  %108 = load ptr, ptr %107, align 8
  %109 = getelementptr inbounds %struct.Bmc_EsPar_t_, ptr %108, i32 0, i32 0
  %110 = load i32, ptr %109, align 8
  store i32 %110, ptr %4, align 4
  br label %111

111:                                              ; preds = %189, %105
  %112 = load i32, ptr %4, align 4
  %113 = load ptr, ptr %3, align 8
  %114 = getelementptr inbounds %struct.Zyx_Man_t_, ptr %113, i32 0, i32 2
  %115 = load i32, ptr %114, align 8
  %116 = icmp slt i32 %112, %115
  br i1 %116, label %117, label %192

117:                                              ; preds = %111
  store i32 0, ptr %5, align 4
  br label %118

118:                                              ; preds = %154, %117
  %119 = load i32, ptr %5, align 4
  %120 = icmp slt i32 %119, 3
  br i1 %120, label %121, label %157

121:                                              ; preds = %118
  %122 = load ptr, ptr %3, align 8
  %123 = load i32, ptr %4, align 4
  %124 = call i32 @Zyx_FuncVar(ptr noundef %122, i32 noundef %123, i32 noundef 1)
  %125 = load i32, ptr %5, align 4
  %126 = icmp eq i32 %125, 1
  %127 = zext i1 %126 to i32
  %128 = call i32 @Abc_Var2Lit(i32 noundef %124, i32 noundef %127)
  %129 = getelementptr inbounds [32 x i32], ptr %6, i64 0, i64 0
  store i32 %128, ptr %129, align 16
  %130 = load ptr, ptr %3, align 8
  %131 = load i32, ptr %4, align 4
  %132 = call i32 @Zyx_FuncVar(ptr noundef %130, i32 noundef %131, i32 noundef 2)
  %133 = load i32, ptr %5, align 4
  %134 = icmp eq i32 %133, 2
  %135 = zext i1 %134 to i32
  %136 = call i32 @Abc_Var2Lit(i32 noundef %132, i32 noundef %135)
  %137 = getelementptr inbounds [32 x i32], ptr %6, i64 0, i64 1
  store i32 %136, ptr %137, align 4
  %138 = load ptr, ptr %3, align 8
  %139 = load i32, ptr %4, align 4
  %140 = call i32 @Zyx_FuncVar(ptr noundef %138, i32 noundef %139, i32 noundef 3)
  %141 = load i32, ptr %5, align 4
  %142 = icmp ne i32 %141, 0
  %143 = zext i1 %142 to i32
  %144 = call i32 @Abc_Var2Lit(i32 noundef %140, i32 noundef %143)
  %145 = getelementptr inbounds [32 x i32], ptr %6, i64 0, i64 2
  store i32 %144, ptr %145, align 8
  %146 = load ptr, ptr %3, align 8
  %147 = getelementptr inbounds %struct.Zyx_Man_t_, ptr %146, i32 0, i32 18
  %148 = load ptr, ptr %147, align 8
  %149 = getelementptr inbounds [32 x i32], ptr %6, i64 0, i64 0
  %150 = call i32 @bmcg_sat_solver_addclause(ptr noundef %148, ptr noundef %149, i32 noundef 3)
  %151 = icmp ne i32 %150, 0
  br i1 %151, label %153, label %152

152:                                              ; preds = %121
  store i32 0, ptr %2, align 4
  br label %193

153:                                              ; preds = %121
  br label %154

154:                                              ; preds = %153
  %155 = load i32, ptr %5, align 4
  %156 = add nsw i32 %155, 1
  store i32 %156, ptr %5, align 4
  br label %118, !llvm.loop !57

157:                                              ; preds = %118
  %158 = load ptr, ptr %3, align 8
  %159 = getelementptr inbounds %struct.Zyx_Man_t_, ptr %158, i32 0, i32 0
  %160 = load ptr, ptr %159, align 8
  %161 = getelementptr inbounds %struct.Bmc_EsPar_t_, ptr %160, i32 0, i32 6
  %162 = load i32, ptr %161, align 8
  %163 = icmp ne i32 %162, 0
  br i1 %163, label %164, label %188

164:                                              ; preds = %157
  %165 = load ptr, ptr %3, align 8
  %166 = load i32, ptr %4, align 4
  %167 = call i32 @Zyx_FuncVar(ptr noundef %165, i32 noundef %166, i32 noundef 1)
  %168 = call i32 @Abc_Var2Lit(i32 noundef %167, i32 noundef 1)
  %169 = getelementptr inbounds [32 x i32], ptr %6, i64 0, i64 0
  store i32 %168, ptr %169, align 16
  %170 = load ptr, ptr %3, align 8
  %171 = load i32, ptr %4, align 4
  %172 = call i32 @Zyx_FuncVar(ptr noundef %170, i32 noundef %171, i32 noundef 2)
  %173 = call i32 @Abc_Var2Lit(i32 noundef %172, i32 noundef 1)
  %174 = getelementptr inbounds [32 x i32], ptr %6, i64 0, i64 1
  store i32 %173, ptr %174, align 4
  %175 = load ptr, ptr %3, align 8
  %176 = load i32, ptr %4, align 4
  %177 = call i32 @Zyx_FuncVar(ptr noundef %175, i32 noundef %176, i32 noundef 3)
  %178 = call i32 @Abc_Var2Lit(i32 noundef %177, i32 noundef 0)
  %179 = getelementptr inbounds [32 x i32], ptr %6, i64 0, i64 2
  store i32 %178, ptr %179, align 8
  %180 = load ptr, ptr %3, align 8
  %181 = getelementptr inbounds %struct.Zyx_Man_t_, ptr %180, i32 0, i32 18
  %182 = load ptr, ptr %181, align 8
  %183 = getelementptr inbounds [32 x i32], ptr %6, i64 0, i64 0
  %184 = call i32 @bmcg_sat_solver_addclause(ptr noundef %182, ptr noundef %183, i32 noundef 3)
  %185 = icmp ne i32 %184, 0
  br i1 %185, label %187, label %186

186:                                              ; preds = %164
  store i32 0, ptr %2, align 4
  br label %193

187:                                              ; preds = %164
  br label %188

188:                                              ; preds = %187, %157
  br label %189

189:                                              ; preds = %188
  %190 = load i32, ptr %4, align 4
  %191 = add nsw i32 %190, 1
  store i32 %191, ptr %4, align 4
  br label %111, !llvm.loop !58

192:                                              ; preds = %111
  store i32 1, ptr %2, align 4
  br label %193

193:                                              ; preds = %192, %186, %152, %104, %92, %46
  %194 = load i32, ptr %2, align 4
  ret i32 %194
}