; Function Attrs: nounwind uwtable
define range(i32 0, 2) i32 @Zyx_ManAddCnfStart(ptr noundef readonly captures(none) %0) local_unnamed_addr #2 {
  %2 = alloca [32 x i32], align 16
  %3 = load ptr, ptr %0, align 8
  %4 = load i32, ptr %3, align 8
  %5 = getelementptr inbounds nuw i8, ptr %0, i64 16
  %6 = load i32, ptr %5, align 8
  %7 = icmp slt i32 %4, %6
  br i1 %7, label %.preheader76.lr.ph, label %.preheader74

.preheader76.lr.ph:                               ; preds = %1
  %8 = getelementptr inbounds nuw i8, ptr %0, i64 28
  %9 = getelementptr inbounds nuw i8, ptr %0, i64 8808
  br label %.preheader76

10:                                               ; preds = %._crit_edge
  %11 = add nsw i32 %.05381, 1
  %12 = load i32, ptr %5, align 8
  %13 = icmp slt i32 %11, %12
  br i1 %13, label %.preheader76, label %.preheader74, !llvm.loop !52

.preheader76:                                     ; preds = %.preheader76.lr.ph, %10
  %14 = phi i32 [ %6, %.preheader76.lr.ph ], [ %12, %10 ]
  %.05381 = phi i32 [ %4, %.preheader76.lr.ph ], [ %11, %10 ]
  %15 = icmp sgt i32 %.05381, 0
  br i1 %15, label %.lr.ph, label %._crit_edge

.lr.ph:                                           ; preds = %.preheader76
  %16 = load i32, ptr %8, align 4
  %17 = load ptr, ptr %0, align 8
  %wide.trip.count = zext nneg i32 %.05381 to i64
  br label %22

.preheader74:                                     ; preds = %10, %1
  %18 = phi i32 [ %6, %1 ], [ %12, %10 ]
  %19 = icmp sgt i32 %18, 1
  br i1 %19, label %.lr.ph89, label %._crit_edge90

.lr.ph89:                                         ; preds = %.preheader74
  %20 = getelementptr inbounds nuw i8, ptr %0, i64 28
  %21 = getelementptr inbounds nuw i8, ptr %0, i64 8808
  br label %37

22:                                               ; preds = %.lr.ph, %22
  %indvars.iv = phi i64 [ 0, %.lr.ph ], [ %indvars.iv.next, %22 ]
  %indvars102 = trunc i64 %indvars.iv to i32
  %23 = load i32, ptr %17, align 8
  %24 = sub nsw i32 %.05381, %23
  %25 = mul nsw i32 %24, %14
  %26 = add i32 %16, %indvars102
  %27 = add i32 %26, %25
  %28 = shl nsw i32 %27, 1
  %indvars.iv.next = add nuw nsw i64 %indvars.iv, 1
  %29 = getelementptr inbounds nuw [32 x i32], ptr %2, i64 0, i64 %indvars.iv
  store i32 %28, ptr %29, align 4
  %exitcond.not = icmp eq i64 %indvars.iv.next, %wide.trip.count
  br i1 %exitcond.not, label %._crit_edge, label %22, !llvm.loop !53

._crit_edge:                                      ; preds = %22, %.preheader76
  %.051.lcssa = phi i32 [ 0, %.preheader76 ], [ %.05381, %22 ]
  %30 = load ptr, ptr %9, align 8
  %31 = call i32 @bmcg_sat_solver_addclause(ptr noundef %30, ptr noundef nonnull %2, i32 noundef %.051.lcssa) #22
  %.not61 = icmp eq i32 %31, 0
  br i1 %.not61, label %.loopexit, label %10

32:                                               ; preds = %._crit_edge86
  %33 = add nuw nsw i32 %.188, 1
  %34 = load i32, ptr %5, align 8
  %35 = add nsw i32 %34, -1
  %36 = icmp slt i32 %33, %35
  br i1 %36, label %37, label %._crit_edge90, !llvm.loop !54

37:                                               ; preds = %.lr.ph89, %32
  %38 = phi i32 [ %18, %.lr.ph89 ], [ %34, %32 ]
  %.188 = phi i32 [ 0, %.lr.ph89 ], [ %33, %32 ]
  %39 = load ptr, ptr %0, align 8
  %40 = load i32, ptr %39, align 8
  %41 = icmp slt i32 %40, %38
  br i1 %41, label %.lr.ph85, label %._crit_edge86

.lr.ph85:                                         ; preds = %37
  %42 = load i32, ptr %20, align 4
  %43 = add i32 %42, %.188
  %44 = sub i32 %38, %40
  %wide.trip.count106 = zext i32 %44 to i64
  br label %45

45:                                               ; preds = %.lr.ph85, %45
  %indvars.iv103 = phi i64 [ 0, %.lr.ph85 ], [ %indvars.iv.next104, %45 ]
  %.15482 = phi i32 [ %40, %.lr.ph85 ], [ %52, %45 ]
  %46 = load i32, ptr %39, align 8
  %47 = sub nsw i32 %.15482, %46
  %48 = mul nsw i32 %47, %38
  %49 = add i32 %43, %48
  %50 = shl nsw i32 %49, 1
  %indvars.iv.next104 = add nuw nsw i64 %indvars.iv103, 1
  %51 = getelementptr inbounds nuw [32 x i32], ptr %2, i64 0, i64 %indvars.iv103
  store i32 %50, ptr %51, align 4
  %52 = add nsw i32 %.15482, 1
  %exitcond107.not = icmp eq i64 %indvars.iv.next104, %wide.trip.count106
  br i1 %exitcond107.not, label %._crit_edge86, label %45, !llvm.loop !55

._crit_edge86:                                    ; preds = %45, %37
  %.0.lcssa = phi i32 [ 0, %37 ], [ %44, %45 ]
  %53 = load ptr, ptr %21, align 8
  %54 = call i32 @bmcg_sat_solver_addclause(ptr noundef %53, ptr noundef nonnull %2, i32 noundef %.0.lcssa) #22
  %.not60 = icmp eq i32 %54, 0
  br i1 %.not60, label %.loopexit, label %32

._crit_edge90:                                    ; preds = %32, %.preheader74
  %55 = phi i32 [ %18, %.preheader74 ], [ %34, %32 ]
  %56 = load ptr, ptr %0, align 8
  %57 = getelementptr inbounds nuw i8, ptr %56, i64 8
  %58 = load i32, ptr %57, align 8
  %.not = icmp eq i32 %58, 2
  br i1 %.not, label %59, label %.loopexit

59:                                               ; preds = %._crit_edge90
  %60 = load i32, ptr %56, align 8
  %61 = icmp slt i32 %60, %55
  br i1 %61, label %.preheader.lr.ph, label %.loopexit

.preheader.lr.ph:                                 ; preds = %59
  %62 = getelementptr i8, ptr %0, i64 24
  %63 = getelementptr inbounds nuw i8, ptr %2, i64 4
  %64 = getelementptr inbounds nuw i8, ptr %2, i64 8
  %65 = getelementptr inbounds nuw i8, ptr %0, i64 8808
  br label %.preheader

.preheader:                                       ; preds = %.preheader.lr.ph, %109
  %.25592 = phi i32 [ %60, %.preheader.lr.ph ], [ %110, %109 ]
  br label %68

66:                                               ; preds = %68
  %67 = add nuw nsw i32 %.291, 1
  %exitcond108.not = icmp eq i32 %67, 3
  br i1 %exitcond108.not, label %91, label %68, !llvm.loop !56

68:                                               ; preds = %.preheader, %66
  %.291 = phi i32 [ 0, %.preheader ], [ %67, %66 ]
  %.val71 = load ptr, ptr %0, align 8
  %.val72 = load i32, ptr %62, align 8
  %.val71.val = load i32, ptr %.val71, align 8
  %69 = sub nsw i32 %.25592, %.val71.val
  %70 = icmp eq i32 %.291, 1
  %71 = zext i1 %70 to i32
  %72 = shl i32 %.val72, 1
  %73 = add i32 %72, 2
  %74 = mul i32 %73, %69
  %75 = add i32 %74, 2
  %76 = or disjoint i32 %75, %71
  store i32 %76, ptr %2, align 16
  %.val69.val = load i32, ptr %.val71, align 8
  %77 = sub nsw i32 %.25592, %.val69.val
  %78 = icmp eq i32 %.291, 2
  %79 = zext i1 %78 to i32
  %80 = mul i32 %73, %77
  %81 = add i32 %80, 4
  %82 = or disjoint i32 %81, %79
  store i32 %82, ptr %63, align 4
  %.val67.val = load i32, ptr %.val71, align 8
  %83 = sub nsw i32 %.25592, %.val67.val
  %84 = icmp ne i32 %.291, 0
  %85 = zext i1 %84 to i32
  %86 = mul i32 %73, %83
  %87 = add i32 %86, 6
  %88 = or disjoint i32 %87, %85
  store i32 %88, ptr %64, align 8
  %89 = load ptr, ptr %65, align 8
  %90 = call i32 @bmcg_sat_solver_addclause(ptr noundef %89, ptr noundef nonnull %2, i32 noundef 3) #22
  %.not59 = icmp eq i32 %90, 0
  br i1 %.not59, label %.loopexit, label %66

91:                                               ; preds = %66
  %92 = load ptr, ptr %0, align 8
  %93 = getelementptr inbounds nuw i8, ptr %92, i64 24
  %94 = load i32, ptr %93, align 8
  %.not57 = icmp eq i32 %94, 0
  br i1 %.not57, label %109, label %95

95:                                               ; preds = %91
  %.val66 = load i32, ptr %62, align 8
  %.val65.val = load i32, ptr %92, align 8
  %96 = sub nsw i32 %.25592, %.val65.val
  %97 = shl i32 %.val66, 1
  %98 = add i32 %97, 2
  %99 = mul i32 %98, %96
  %100 = add i32 %99, 3
  store i32 %100, ptr %2, align 16
  %.val63.val = load i32, ptr %92, align 8
  %101 = sub nsw i32 %.25592, %.val63.val
  %102 = mul i32 %98, %101
  %103 = add i32 %102, 5
  store i32 %103, ptr %63, align 4
  %.val.val = load i32, ptr %92, align 8
  %104 = sub nsw i32 %.25592, %.val.val
  %105 = mul i32 %98, %104
  %106 = add i32 %105, 6
  store i32 %106, ptr %64, align 8
  %107 = load ptr, ptr %65, align 8
  %108 = call i32 @bmcg_sat_solver_addclause(ptr noundef %107, ptr noundef nonnull %2, i32 noundef 3) #22
  %.not58 = icmp eq i32 %108, 0
  br i1 %.not58, label %.loopexit, label %109

109:                                              ; preds = %91, %95
  %110 = add nsw i32 %.25592, 1
  %111 = load i32, ptr %5, align 8
  %112 = icmp slt i32 %110, %111
  br i1 %112, label %.preheader, label %.loopexit, !llvm.loop !57

.loopexit:                                        ; preds = %._crit_edge, %._crit_edge86, %95, %109, %68, %59, %._crit_edge90
  %.056 = phi i32 [ 1, %._crit_edge90 ], [ 1, %59 ], [ 0, %68 ], [ 0, %95 ], [ 1, %109 ], [ 0, %._crit_edge86 ], [ 0, %._crit_edge ]
  ret i32 %.056
}